; Function Attrs: mustprogress uwtable
define dso_local void @_ZN5cmake14UpdateProgressERKNSt7__cxx1112basic_stringIcSt11char_traitsIcESaIcEEEf(ptr noundef nonnull align 8 dereferenceable(2216) %0, ptr noundef nonnull align 8 dereferenceable(32) %1, float noundef %2) local_unnamed_addr #3 align 2 {
  %4 = alloca float, align 4
  %5 = getelementptr inbounds i8, ptr %0, i64 232
  %6 = getelementptr inbounds i8, ptr %0, i64 248
  %7 = load ptr, ptr %6, align 8
  %.not.i.i.not = icmp eq ptr %7, null
  br i1 %.not.i.i.not, label %18, label %8

8:                                                ; preds = %3
  %9 = getelementptr inbounds i8, ptr %0, i64 1912
  %10 = load ptr, ptr %9, align 8
  %11 = tail call noundef i32 @_ZNK7cmState14GetProjectKindEv(ptr noundef nonnull align 8 dereferenceable(705) %10)
  %12 = icmp eq i32 %11, 1
  br i1 %12, label %18, label %13

13:                                               ; preds = %8
  call void @llvm.lifetime.start.p0(i64 4, ptr nonnull %4)
  store float %2, ptr %4, align 4
  %14 = load ptr, ptr %6, align 8
  %.not.i.i3 = icmp eq ptr %14, null
  br i1 %.not.i.i3, label %15, label %_ZNKSt8functionIFvRKNSt7__cxx1112basic_stringIcSt11char_traitsIcESaIcEEEfEEclES7_f.exit

15:                                               ; preds = %13
  tail call void @_ZSt25__throw_bad_function_callv() #29
  unreachable

_ZNKSt8functionIFvRKNSt7__cxx1112basic_stringIcSt11char_traitsIcESaIcEEEfEEclES7_f.exit: ; preds = %13
  %16 = getelementptr inbounds i8, ptr %0, i64 256
  %17 = load ptr, ptr %16, align 8
  call void %17(ptr noundef nonnull align 8 dereferenceable(16) %5, ptr noundef nonnull align 8 dereferenceable(32) %1, ptr noundef nonnull align 4 dereferenceable(4) %4)
  call void @llvm.lifetime.end.p0(i64 4, ptr nonnull %4)
  br label %18

18:                                               ; preds = %_ZNKSt8functionIFvRKNSt7__cxx1112basic_stringIcSt11char_traitsIcESaIcEEEfEEclES7_f.exit, %8, %3
  ret void
}